; Function Attrs: nounwind uwtable
define internal fastcc void @bn_mul_normal(ptr noundef %0, ptr noundef %1, i32 noundef %2, ptr noundef %3, i32 noundef %4) unnamed_addr #0 {
  %6 = icmp slt i32 %2, %4
  br i1 %6, label %7, label %8

7:                                                ; preds = %5
  br label %8

8:                                                ; preds = %7, %5
  %.050 = phi i32 [ %4, %7 ], [ %2, %5 ]
  %.048 = phi ptr [ %1, %7 ], [ %3, %5 ]
  %.047 = phi i32 [ %2, %7 ], [ %4, %5 ]
  %.045 = phi ptr [ %3, %7 ], [ %1, %5 ]
  %9 = icmp slt i32 %.047, 1
  br i1 %9, label %10, label %12

10:                                               ; preds = %8
  %11 = tail call i64 @bn_mul_words(ptr noundef %0, ptr noundef %.045, i32 noundef %.050, i64 noundef 0) #5
  br label %.loopexit

12:                                               ; preds = %8
  %13 = sext i32 %.050 to i64
  %14 = getelementptr inbounds i64, ptr %0, i64 %13
  %15 = load i64, ptr %.048, align 8, !tbaa !15
  %16 = tail call i64 @bn_mul_words(ptr noundef %0, ptr noundef %.045, i32 noundef %.050, i64 noundef %15) #5
  store i64 %16, ptr %14, align 8, !tbaa !15
  %17 = icmp eq i32 %.047, 1
  br i1 %17, label %.loopexit, label %.lr.ph

.lr.ph:                                           ; preds = %12, %38
  %.062 = phi ptr [ %40, %38 ], [ %0, %12 ]
  %.04661 = phi ptr [ %44, %38 ], [ %14, %12 ]
  %.160 = phi i32 [ %39, %38 ], [ %.047, %12 ]
  %.14959 = phi ptr [ %41, %38 ], [ %.048, %12 ]
  %18 = getelementptr inbounds nuw i8, ptr %.062, i64 8
  %19 = getelementptr inbounds nuw i8, ptr %.14959, i64 8
  %20 = load i64, ptr %19, align 8, !tbaa !15
  %21 = tail call i64 @bn_mul_add_words(ptr noundef nonnull %18, ptr noundef %.045, i32 noundef %.050, i64 noundef %20) #5
  %22 = getelementptr inbounds nuw i8, ptr %.04661, i64 8
  store i64 %21, ptr %22, align 8, !tbaa !15
  %23 = icmp eq i32 %.160, 2
  br i1 %23, label %.loopexit, label %24

24:                                               ; preds = %.lr.ph
  %25 = getelementptr inbounds nuw i8, ptr %.062, i64 16
  %26 = getelementptr inbounds nuw i8, ptr %.14959, i64 16
  %27 = load i64, ptr %26, align 8, !tbaa !15
  %28 = tail call i64 @bn_mul_add_words(ptr noundef nonnull %25, ptr noundef %.045, i32 noundef %.050, i64 noundef %27) #5
  %29 = getelementptr inbounds nuw i8, ptr %.04661, i64 16
  store i64 %28, ptr %29, align 8, !tbaa !15
  %30 = icmp samesign ult i32 %.160, 4
  br i1 %30, label %.loopexit, label %31

31:                                               ; preds = %24
  %32 = getelementptr inbounds nuw i8, ptr %.062, i64 24
  %33 = getelementptr inbounds nuw i8, ptr %.14959, i64 24
  %34 = load i64, ptr %33, align 8, !tbaa !15
  %35 = tail call i64 @bn_mul_add_words(ptr noundef nonnull %32, ptr noundef %.045, i32 noundef %.050, i64 noundef %34) #5
  %36 = getelementptr inbounds nuw i8, ptr %.04661, i64 24
  store i64 %35, ptr %36, align 8, !tbaa !15
  %37 = icmp eq i32 %.160, 4
  br i1 %37, label %.loopexit, label %38

38:                                               ; preds = %31
  %39 = add nsw i32 %.160, -4
  %40 = getelementptr inbounds nuw i8, ptr %.062, i64 32
  %41 = getelementptr inbounds nuw i8, ptr %.14959, i64 32
  %42 = load i64, ptr %41, align 8, !tbaa !15
  %43 = tail call i64 @bn_mul_add_words(ptr noundef nonnull %40, ptr noundef %.045, i32 noundef %.050, i64 noundef %42) #5
  %44 = getelementptr inbounds nuw i8, ptr %.04661, i64 32
  store i64 %43, ptr %44, align 8, !tbaa !15
  %45 = icmp samesign ult i32 %39, 2
  br i1 %45, label %.loopexit, label %.lr.ph

.loopexit:                                        ; preds = %38, %.lr.ph, %24, %31, %12, %10
  ret void
}